target datalayout = "e-m:e-p270:32:32-p271:32:32-p272:64:64-i64:64-f80:128-n8:16:32:64-S128"
target triple = "x86_64-pc-linux-gnu"

@.str = private unnamed_addr constant [3 x i8] c"%d\00", align 1
@.str.1 = private unnamed_addr constant [3 x i8] c"%s\00", align 1
@.str.2 = private unnamed_addr constant [4 x i8] c"%d\0A\00", align 1

; Function Attrs: noinline nounwind uwtable
define dso_local i32 @main() #0 {
  %1 = alloca i32, align 4
  %2 = alloca [150 x i8], align 16
  %3 = alloca [150 x i8], align 16
  %4 = alloca [150 x i32], align 16
  %5 = alloca [150 x i32], align 16
  %6 = alloca [150 x i32], align 16
  %7 = alloca i32, align 4
  %8 = alloca i32, align 4
  %9 = alloca i32, align 4
  %10 = alloca i32, align 4
  %11 = alloca i32, align 4
  %12 = alloca i32, align 4
  %13 = alloca i32, align 4
  store i32 0, i32* %1, align 4
  %14 = call i32 (i8*, ...) @__isoc99_scanf(i8* getelementptr inbounds ([3 x i8], [3 x i8]* @.str, i64 0, i64 0), i32* %7)
  store i32 0, i32* %10, align 4
  br label %15

15:                                               ; preds = %178, %0
  %16 = load i32, i32* %10, align 4
  %17 = load i32, i32* %7, align 4
  %18 = icmp slt i32 %16, %17
  br i1 %18, label %19, label %181

19:                                               ; preds = %15
  %20 = getelementptr inbounds [150 x i8], [150 x i8]* %2, i64 0, i64 0
  %21 = call i32 (i8*, ...) @__isoc99_scanf(i8* getelementptr inbounds ([3 x i8], [3 x i8]* @.str.1, i64 0, i64 0), i8* %20)
  %22 = getelementptr inbounds [150 x i8], [150 x i8]* %3, i64 0, i64 0
  %23 = call i32 (i8*, ...) @__isoc99_scanf(i8* getelementptr inbounds ([3 x i8], [3 x i8]* @.str.1, i64 0, i64 0), i8* %22)
  %24 = getelementptr inbounds [150 x i8], [150 x i8]* %2, i64 0, i64 0
  %25 = call i64 @strlen(i8* %24) #3
  %26 = trunc i64 %25 to i32
  store i32 %26, i32* %8, align 4
  %27 = getelementptr inbounds [150 x i8], [150 x i8]* %3, i64 0, i64 0
  %28 = call i64 @strlen(i8* %27) #3
  %29 = trunc i64 %28 to i32
  store i32 %29, i32* %9, align 4
  store i32 0, i32* %11, align 4
  br label %30

30:                                               ; preds = %44, %19
  %31 = load i32, i32* %11, align 4
  %32 = load i32, i32* %8, align 4
  %33 = icmp slt i32 %31, %32
  br i1 %33, label %34, label %47

34:                                               ; preds = %30
  %35 = load i32, i32* %11, align 4
  %36 = sext i32 %35 to i64
  %37 = getelementptr inbounds [150 x i8], [150 x i8]* %2, i64 0, i64 %36
  %38 = load i8, i8* %37, align 1
  %39 = sext i8 %38 to i32
  %40 = sub nsw i32 %39, 48
  %41 = load i32, i32* %11, align 4
  %42 = sext i32 %41 to i64
  %43 = getelementptr inbounds [150 x i32], [150 x i32]* %4, i64 0, i64 %42
  store i32 %40, i32* %43, align 4
  br label %44

44:                                               ; preds = %34
  %45 = load i32, i32* %11, align 4
  %46 = add nsw i32 %45, 1
  store i32 %46, i32* %11, align 4
  br label %30

47:                                               ; preds = %30
  store i32 0, i32* %11, align 4
  br label %48

48:                                               ; preds = %58, %47
  %49 = load i32, i32* %11, align 4
  %50 = load i32, i32* %8, align 4
  %51 = load i32, i32* %9, align 4
  %52 = sub nsw i32 %50, %51
  %53 = icmp slt i32 %49, %52
  br i1 %53, label %54, label %61

54:                                               ; preds = %48
  %55 = load i32, i32* %11, align 4
  %56 = sext i32 %55 to i64
  %57 = getelementptr inbounds [150 x i32], [150 x i32]* %5, i64 0, i64 %56
  store i32 0, i32* %57, align 4
  br label %58

58:                                               ; preds = %54
  %59 = load i32, i32* %11, align 4
  %60 = add nsw i32 %59, 1
  store i32 %60, i32* %11, align 4
  br label %48

61:                                               ; preds = %48
  %62 = load i32, i32* %8, align 4
  %63 = load i32, i32* %9, align 4
  %64 = sub nsw i32 %62, %63
  store i32 %64, i32* %11, align 4
  br label %65

65:                                               ; preds = %83, %61
  %66 = load i32, i32* %11, align 4
  %67 = load i32, i32* %8, align 4
  %68 = icmp slt i32 %66, %67
  br i1 %68, label %69, label %86

69:                                               ; preds = %65
  %70 = load i32, i32* %11, align 4
  %71 = load i32, i32* %8, align 4
  %72 = sub nsw i32 %70, %71
  %73 = load i32, i32* %9, align 4
  %74 = add nsw i32 %72, %73
  %75 = sext i32 %74 to i64
  %76 = getelementptr inbounds [150 x i8], [150 x i8]* %3, i64 0, i64 %75
  %77 = load i8, i8* %76, align 1
  %78 = sext i8 %77 to i32
  %79 = sub nsw i32 %78, 48
  %80 = load i32, i32* %11, align 4
  %81 = sext i32 %80 to i64
  %82 = getelementptr inbounds [150 x i32], [150 x i32]* %5, i64 0, i64 %81
  store i32 %79, i32* %82, align 4
  br label %83

83:                                               ; preds = %69
  %84 = load i32, i32* %11, align 4
  %85 = add nsw i32 %84, 1
  store i32 %85, i32* %11, align 4
  br label %65

86:                                               ; preds = %65
  store i32 0, i32* %13, align 4
  %87 = load i32, i32* %8, align 4
  %88 = sub nsw i32 %87, 1
  store i32 %88, i32* %11, align 4
  br label %89

89:                                               ; preds = %136, %86
  %90 = load i32, i32* %11, align 4
  %91 = icmp sge i32 %90, 0
  br i1 %91, label %92, label %139

92:                                               ; preds = %89
  %93 = load i32, i32* %11, align 4
  %94 = sext i32 %93 to i64
  %95 = getelementptr inbounds [150 x i32], [150 x i32]* %4, i64 0, i64 %94
  %96 = load i32, i32* %95, align 4
  %97 = load i32, i32* %11, align 4
  %98 = sext i32 %97 to i64
  %99 = getelementptr inbounds [150 x i32], [150 x i32]* %5, i64 0, i64 %98
  %100 = load i32, i32* %99, align 4
  %101 = load i32, i32* %13, align 4
  %102 = add nsw i32 %100, %101
  %103 = icmp sge i32 %96, %102
  br i1 %103, label %104, label %119

104:                                              ; preds = %92
  %105 = load i32, i32* %11, align 4
  %106 = sext i32 %105 to i64
  %107 = getelementptr inbounds [150 x i32], [150 x i32]* %4, i64 0, i64 %106
  %108 = load i32, i32* %107, align 4
  %109 = load i32, i32* %11, align 4
  %110 = sext i32 %109 to i64
  %111 = getelementptr inbounds [150 x i32], [150 x i32]* %5, i64 0, i64 %110
  %112 = load i32, i32* %111, align 4
  %113 = sub nsw i32 %108, %112
  %114 = load i32, i32* %13, align 4
  %115 = sub nsw i32 %113, %114
  %116 = load i32, i32* %11, align 4
  %117 = sext i32 %116 to i64
  %118 = getelementptr inbounds [150 x i32], [150 x i32]* %6, i64 0, i64 %117
  store i32 %115, i32* %118, align 4
  store i32 0, i32* %13, align 4
  br label %135

119:                                              ; preds = %92
  %120 = load i32, i32* %11, align 4
  %121 = sext i32 %120 to i64
  %122 = getelementptr inbounds [150 x i32], [150 x i32]* %4, i64 0, i64 %121
  %123 = load i32, i32* %122, align 4
  %124 = add nsw i32 %123, 10
  %125 = load i32, i32* %11, align 4
  %126 = sext i32 %125 to i64
  %127 = getelementptr inbounds [150 x i32], [150 x i32]* %5, i64 0, i64 %126
  %128 = load i32, i32* %127, align 4
  %129 = sub nsw i32 %124, %128
  %130 = load i32, i32* %13, align 4
  %131 = sub nsw i32 %129, %130
  %132 = load i32, i32* %11, align 4
  %133 = sext i32 %132 to i64
  %134 = getelementptr inbounds [150 x i32], [150 x i32]* %6, i64 0, i64 %133
  store i32 %131, i32* %134, align 4
  store i32 1, i32* %13, align 4
  br label %135

135:                                              ; preds = %119, %104
  br label %136

136:                                              ; preds = %135
  %137 = load i32, i32* %11, align 4
  %138 = add nsw i32 %137, -1
  store i32 %138, i32* %11, align 4
  br label %89

139:                                              ; preds = %89
  store i32 0, i32* %11, align 4
  br label %140

140:                                              ; preds = %152, %139
  %141 = load i32, i32* %11, align 4
  %142 = load i32, i32* %8, align 4
  %143 = icmp slt i32 %141, %142
  br i1 %143, label %144, label %155

144:                                              ; preds = %140
  %145 = load i32, i32* %11, align 4
  %146 = sext i32 %145 to i64
  %147 = getelementptr inbounds [150 x i32], [150 x i32]* %6, i64 0, i64 %146
  %148 = load i32, i32* %147, align 4
  %149 = icmp ne i32 %148, 0
  br i1 %149, label %150, label %151

150:                                              ; preds = %144
  br label %155

151:                                              ; preds = %144
  br label %152

152:                                              ; preds = %151
  %153 = load i32, i32* %11, align 4
  %154 = add nsw i32 %153, 1
  store i32 %154, i32* %11, align 4
  br label %140

155:                                              ; preds = %150, %140
  %156 = load i32, i32* %11, align 4
  store i32 %156, i32* %12, align 4
  br label %157

157:                                              ; preds = %168, %155
  %158 = load i32, i32* %12, align 4
  %159 = load i32, i32* %8, align 4
  %160 = sub nsw i32 %159, 1
  %161 = icmp slt i32 %158, %160
  br i1 %161, label %162, label %171

162:                                              ; preds = %157
  %163 = load i32, i32* %12, align 4
  %164 = sext i32 %163 to i64
  %165 = getelementptr inbounds [150 x i32], [150 x i32]* %6, i64 0, i64 %164
  %166 = load i32, i32* %165, align 4
  %167 = call i32 (i8*, ...) @printf(i8* getelementptr inbounds ([3 x i8], [3 x i8]* @.str, i64 0, i64 0), i32 %166)
  br label %168

168:                                              ; preds = %162
  %169 = load i32, i32* %12, align 4
  %170 = add nsw i32 %169, 1
  store i32 %170, i32* %12, align 4
  br label %157

171:                                              ; preds = %157
  %172 = load i32, i32* %8, align 4
  %173 = sub nsw i32 %172, 1
  %174 = sext i32 %173 to i64
  %175 = getelementptr inbounds [150 x i32], [150 x i32]* %6, i64 0, i64 %174
  %176 = load i32, i32* %175, align 4
  %177 = call i32 (i8*, ...) @printf(i8* getelementptr inbounds ([4 x i8], [4 x i8]* @.str.2, i64 0, i64 0), i32 %176)
  br label %178

178:                                              ; preds = %171
  %179 = load i32, i32* %10, align 4
  %180 = add nsw i32 %179, 1
  store i32 %180, i32* %10, align 4
  br label %15

181:                                              ; preds = %15
  ret i32 0
}